
firmware.elf:     file format elf32-littleriscv


Disassembly of section .memory:

00000000 <reset_vec>:
   0:	0040006f          	j	4 <start>

00000004 <start>:
   4:	00000093          	li	ra,0
   8:	00000113          	li	sp,0
   c:	00000193          	li	gp,0
  10:	00000213          	li	tp,0
  14:	00000293          	li	t0,0
  18:	00000313          	li	t1,0
  1c:	00000393          	li	t2,0
  20:	00000413          	li	s0,0
  24:	00000493          	li	s1,0
  28:	00000513          	li	a0,0
  2c:	00000593          	li	a1,0
  30:	00000613          	li	a2,0
  34:	00000693          	li	a3,0
  38:	00000713          	li	a4,0
  3c:	00000793          	li	a5,0
  40:	00000813          	li	a6,0
  44:	00000893          	li	a7,0
  48:	00000913          	li	s2,0
  4c:	00000993          	li	s3,0
  50:	00000a13          	li	s4,0
  54:	00000a93          	li	s5,0
  58:	00000b13          	li	s6,0
  5c:	00000b93          	li	s7,0
  60:	00000c13          	li	s8,0
  64:	00000c93          	li	s9,0
  68:	00000d13          	li	s10,0
  6c:	00000d93          	li	s11,0
  70:	00000e13          	li	t3,0
  74:	00000e93          	li	t4,0
  78:	00000f13          	li	t5,0
  7c:	00000f93          	li	t6,0
  80:	0000c137          	lui	sp,0xc
  84:	f0010113          	add	sp,sp,-256 # bf00 <end+0xbbac>
  88:	168000ef          	jal	1f0 <pcu_main>
  8c:	10000537          	lui	a0,0x10000
  90:	04400593          	li	a1,68
  94:	04f00613          	li	a2,79
  98:	04e00693          	li	a3,78
  9c:	04500713          	li	a4,69
  a0:	00a00793          	li	a5,10
  a4:	00b52023          	sw	a1,0(a0) # 10000000 <end+0xffffcac>
  a8:	00c52023          	sw	a2,0(a0)
  ac:	00d52023          	sw	a3,0(a0)
  b0:	00e52023          	sw	a4,0(a0)
  b4:	00f52023          	sw	a5,0(a0)
  b8:	20000537          	lui	a0,0x20000
  bc:	075bd5b7          	lui	a1,0x75bd
  c0:	d1558593          	add	a1,a1,-747 # 75bcd15 <end+0x75bc9c1>
  c4:	00b52023          	sw	a1,0(a0) # 20000000 <end+0x1ffffcac>
  c8:	00100073          	ebreak

000000cc <load_kernel>:
  cc:	00351513          	sll	a0,a0,0x3
  d0:	24400793          	li	a5,580
  d4:	00a787b3          	add	a5,a5,a0
  d8:	0007a783          	lw	a5,0(a5)
  dc:	24c00713          	li	a4,588
  e0:	00479793          	sll	a5,a5,0x4
  e4:	00f707b3          	add	a5,a4,a5
  e8:	00000513          	li	a0,0
  ec:	0000c5b7          	lui	a1,0xc
  f0:	03070613          	add	a2,a4,48
  f4:	00300313          	li	t1,3
  f8:	0007a683          	lw	a3,0(a5)
  fc:	0047a803          	lw	a6,4(a5)
 100:	0087a703          	lw	a4,8(a5)
 104:	01069693          	sll	a3,a3,0x10
 108:	00881813          	sll	a6,a6,0x8
 10c:	010686b3          	add	a3,a3,a6
 110:	00c7a883          	lw	a7,12(a5)
 114:	00168693          	add	a3,a3,1
 118:	00d5a023          	sw	a3,0(a1) # c000 <end+0xbcac>
 11c:	0005a223          	sw	zero,4(a1)
 120:	00271713          	sll	a4,a4,0x2
 124:	0115a423          	sw	a7,8(a1)
 128:	00e60733          	add	a4,a2,a4
 12c:	00000693          	li	a3,0
 130:	01169c63          	bne	a3,a7,148 <load_kernel+0x7c>
 134:	0005a023          	sw	zero,0(a1)
 138:	00150513          	add	a0,a0,1
 13c:	01078793          	add	a5,a5,16
 140:	fa651ce3          	bne	a0,t1,f8 <load_kernel+0x2c>
 144:	00008067          	ret
 148:	00072803          	lw	a6,0(a4)
 14c:	00168693          	add	a3,a3,1
 150:	00470713          	add	a4,a4,4
 154:	0105a623          	sw	a6,12(a1)
 158:	fd9ff06f          	j	130 <load_kernel+0x64>

0000015c <call>:
 15c:	0000c7b7          	lui	a5,0xc
 160:	00100713          	li	a4,1
 164:	00e7a823          	sw	a4,16(a5) # c010 <end+0xbcbc>
 168:	0007a823          	sw	zero,16(a5)
 16c:	00008067          	ret

00000170 <ret>:
 170:	0000c6b7          	lui	a3,0xc
 174:	00700713          	li	a4,7
 178:	0146a783          	lw	a5,20(a3) # c014 <end+0xbcc0>
 17c:	0077f793          	and	a5,a5,7
 180:	fee79ce3          	bne	a5,a4,178 <ret+0x8>
 184:	00008067          	ret

00000188 <load>:
 188:	00959593          	sll	a1,a1,0x9
 18c:	0000c7b7          	lui	a5,0xc
 190:	01861613          	sll	a2,a2,0x18
 194:	0095d593          	srl	a1,a1,0x9
 198:	02a7a223          	sw	a0,36(a5) # c024 <end+0xbcd0>
 19c:	00b66633          	or	a2,a2,a1
 1a0:	00151513          	sll	a0,a0,0x1
 1a4:	02c7a423          	sw	a2,40(a5)
 1a8:	00155513          	srl	a0,a0,0x1
 1ac:	02a7a223          	sw	a0,36(a5)
 1b0:	0000c737          	lui	a4,0xc
 1b4:	02072783          	lw	a5,32(a4) # c020 <end+0xbccc>
 1b8:	0017f793          	and	a5,a5,1
 1bc:	fe078ce3          	beqz	a5,1b4 <load+0x2c>
 1c0:	00008067          	ret

000001c4 <store>:
 1c4:	00959593          	sll	a1,a1,0x9
 1c8:	0000c7b7          	lui	a5,0xc
 1cc:	01861613          	sll	a2,a2,0x18
 1d0:	0095d593          	srl	a1,a1,0x9
 1d4:	00a7ac23          	sw	a0,24(a5) # c018 <end+0xbcc4>
 1d8:	00b66633          	or	a2,a2,a1
 1dc:	00151513          	sll	a0,a0,0x1
 1e0:	00c7ae23          	sw	a2,28(a5)
 1e4:	00155513          	srl	a0,a0,0x1
 1e8:	00a7ac23          	sw	a0,24(a5)
 1ec:	00008067          	ret

000001f0 <pcu_main>:
 1f0:	000205b7          	lui	a1,0x20
 1f4:	81000537          	lui	a0,0x81000
 1f8:	ff010113          	add	sp,sp,-16
 1fc:	00600613          	li	a2,6
 200:	00458593          	add	a1,a1,4 # 20004 <end+0x1fcb0>
 204:	00b50513          	add	a0,a0,11 # 8100000b <end+0x80fffcb7>
 208:	00112623          	sw	ra,12(sp)
 20c:	f7dff0ef          	jal	188 <load>
 210:	83000737          	lui	a4,0x83000
 214:	0000c7b7          	lui	a5,0xc
 218:	00a70713          	add	a4,a4,10 # 8300000a <end+0x82fffcb6>
 21c:	00e7ac23          	sw	a4,24(a5) # c018 <end+0xbcc4>
 220:	06020737          	lui	a4,0x6020
 224:	00470713          	add	a4,a4,4 # 6020004 <end+0x601fcb0>
 228:	00e7ae23          	sw	a4,28(a5)
 22c:	00c12083          	lw	ra,12(sp)
 230:	03000737          	lui	a4,0x3000
 234:	00a70713          	add	a4,a4,10 # 300000a <end+0x2fffcb6>
 238:	00e7ac23          	sw	a4,24(a5)
 23c:	01010113          	add	sp,sp,16
 240:	00008067          	ret

00000244 <kernel_index>:
 244:	00000000 00000003                       ........

0000024c <instr_index>:
 24c:	00000002 00000000 00000000 0000000d     ................
 25c:	00000001 00000000 0000000d 0000001a     ................
	...
 274:	00000027 0000000c                       '.......

0000027c <instr_data>:
 27c:	1000000e d0220008 20004000 1000001c     ......"..@. ....
 28c:	e1000060 81c01040 e1000020 81401040     `...@... ...@.@.
 29c:	e2000040 82801040 20004002 2000a001     @...@....@. ... 
 2ac:	10000001 00000000 e3000000 8301f040     ............@...
 2bc:	e1000020 8141f040 e2000020 8241f040      ...@.A. ...@.A.
 2cc:	e2000040 82801041 b40e0000 e1000040     @...A.......@...
 2dc:	81801041 c0105000 c0149400 c00d0c00     A....P..........
 2ec:	d022000c d0060100 20005000 21004001     .."......P. .@.!
 2fc:	20004002 20022001 20001003 1000001c     .@. . . ... ....
 30c:	e3000060 83c01040 20008003 10000002     `...@...... ....
 31c:	00000000 10000007 e2000060 82c03040     ........`...@0..
 32c:	e1000040 81803040 e1000000 81001080     @...@0..........
 33c:	81041040 d0040100 20054000 20008002     @........@. ... 
 34c:	10000024 00000000                       $.......
